target datalayout = "e-m:e-p270:32:32-p271:32:32-p272:64:64-i64:64-i128:128-f80:128-n8:16:32:64-S128"
target triple = "x86_64-pc-linux-gnu"

%"class.icu_77::UnicodeString" = type { %"class.icu_77::Replaceable", %"union.icu_77::UnicodeString::StackBufferOrFields" }
%"class.icu_77::Replaceable" = type { %"class.icu_77::UObject" }
%"class.icu_77::UObject" = type { ptr }
%"union.icu_77::UnicodeString::StackBufferOrFields" = type { %struct.anon.0, [32 x i8] }
%struct.anon.0 = type { i16, i32, i32, ptr }
%"class.icu_77::Locale" = type <{ %"class.icu_77::UObject", [12 x i8], [6 x i8], [4 x i8], [2 x i8], i32, [4 x i8], ptr, [157 x i8], [3 x i8], ptr, i8, [7 x i8] }>
%"class.icu_77::LocalPointer.8" = type { %"class.icu_77::LocalPointerBase.9" }
%"class.icu_77::LocalPointerBase.9" = type { ptr }
%"class.icu_77::DecimalFormat" = type { %"class.icu_77::NumberFormat.base", ptr }
%"class.icu_77::NumberFormat.base" = type <{ %"class.icu_77::Format", i8, [3 x i8], i32, i32, i32, i32, i8, i8, [4 x i16], [2 x i8], i32 }>
%"class.icu_77::Format" = type { %"class.icu_77::UObject", ptr, ptr }
%"struct.icu_77::number::impl::DecimalFormatFields" = type <{ [8 x i8], %"struct.icu_77::number::impl::DecimalFormatProperties", %"class.icu_77::LocalPointer.8", %"class.icu_77::number::LocalizedNumberFormatter", %"struct.std::atomic", %"struct.std::atomic", %"struct.icu_77::number::impl::DecimalFormatWarehouse", %"struct.icu_77::number::impl::DecimalFormatProperties", i8, i8, %"struct.icu_77::number::impl::DecimalFormatFields::FastFormatData", [6 x i8] }>
%"class.icu_77::number::LocalizedNumberFormatter" = type { %"class.icu_77::number::NumberFormatterSettings", ptr, [8 x i8], ptr }
%"class.icu_77::number::NumberFormatterSettings" = type { %"struct.icu_77::number::impl::MacroProps" }
%"struct.icu_77::number::impl::MacroProps" = type { [4 x i8], %"class.icu_77::number::Notation", %"class.icu_77::MeasureUnit", %"class.icu_77::MeasureUnit", %"class.icu_77::number::Precision", i32, %"class.icu_77::number::impl::Grouper", %"class.icu_77::number::impl::Padder", %"class.icu_77::number::IntegerWidth", %"class.icu_77::number::impl::SymbolsWrapper", i32, i32, i8, i32, %"class.icu_77::number::Scale", %"class.icu_77::number::impl::StringProp", %"class.icu_77::number::impl::StringProp", ptr, ptr, i32, [4 x i8], %"class.icu_77::Locale" }
%"class.icu_77::number::Notation" = type { i32, %"union.icu_77::number::Notation::NotationUnion" }
%"union.icu_77::number::Notation::NotationUnion" = type { %"struct.icu_77::number::Notation::NotationUnion::ScientificSettings" }
%"struct.icu_77::number::Notation::NotationUnion::ScientificSettings" = type { i8, i8, i16, i32 }
%"class.icu_77::MeasureUnit" = type <{ %"class.icu_77::UObject", ptr, i16, i8, [5 x i8] }>
%"class.icu_77::number::Precision" = type <{ i32, [4 x i8], %"union.icu_77::number::Precision::PrecisionUnion", i32, [4 x i8] }>
%"union.icu_77::number::Precision::PrecisionUnion" = type { %"struct.icu_77::number::Precision::PrecisionUnion::IncrementSettings" }
%"struct.icu_77::number::Precision::PrecisionUnion::IncrementSettings" = type { i64, i16, i16 }
%"class.icu_77::number::impl::Grouper" = type { i16, i16, i16, i32 }
%"class.icu_77::number::impl::Padder" = type { i32, %union.anon }
%union.anon = type { %struct.anon.10 }
%struct.anon.10 = type { i32, i32 }
%"class.icu_77::number::IntegerWidth" = type <{ %union.anon.11, i8, [3 x i8] }>
%union.anon.11 = type { i32, [4 x i8] }
%"class.icu_77::number::impl::SymbolsWrapper" = type { i32, %union.anon.13 }
%union.anon.13 = type { ptr }
%"class.icu_77::number::Scale" = type <{ i32, [4 x i8], ptr, i32, [4 x i8] }>
%"class.icu_77::number::impl::StringProp" = type { ptr, i16, i32 }
%"struct.std::atomic" = type { %"struct.std::__atomic_base" }
%"struct.std::__atomic_base" = type { ptr }
%"struct.icu_77::number::impl::DecimalFormatWarehouse" = type { [8 x i8], %"class.icu_77::number::impl::AutoAffixPatternProvider", %"class.icu_77::LocalPointer.14" }
%"class.icu_77::number::impl::AutoAffixPatternProvider" = type { %"class.icu_77::number::impl::PropertiesAffixPatternProvider", %"class.icu_77::number::impl::CurrencyPluralInfoAffixProvider" }
%"class.icu_77::number::impl::PropertiesAffixPatternProvider" = type <{ %"class.icu_77::number::impl::AffixPatternProvider", %"class.icu_77::UnicodeString", %"class.icu_77::UnicodeString", %"class.icu_77::UnicodeString", %"class.icu_77::UnicodeString", i8, i8, i8, [5 x i8] }>
%"class.icu_77::number::impl::AffixPatternProvider" = type { ptr }
%"class.icu_77::number::impl::CurrencyPluralInfoAffixProvider" = type <{ %"class.icu_77::number::impl::AffixPatternProvider", [8 x %"class.icu_77::number::impl::PropertiesAffixPatternProvider"], i8, [7 x i8] }>
%"class.icu_77::LocalPointer.14" = type { %"class.icu_77::LocalPointerBase.15" }
%"class.icu_77::LocalPointerBase.15" = type { ptr }
%"struct.icu_77::number::impl::DecimalFormatProperties" = type <{ %"class.icu_77::number::impl::NullableValue", %"class.icu_77::number::impl::NullableValue.3", %"class.icu_77::number::impl::CurrencyPluralInfoWrapper", %"class.icu_77::number::impl::NullableValue.4", i8, i8, i8, i8, i8, [3 x i8], i32, i32, i8, [3 x i8], i32, i32, i32, i32, i32, i32, i32, i32, i32, i32, i32, %"class.icu_77::UnicodeString", %"class.icu_77::UnicodeString", %"class.icu_77::UnicodeString", %"class.icu_77::UnicodeString", %"class.icu_77::number::impl::NullableValue.5", %"class.icu_77::UnicodeString", i8, i8, [2 x i8], %"class.icu_77::number::impl::NullableValue.6", i8, i8, [2 x i8], i32, [4 x i8], %"class.icu_77::UnicodeString", %"class.icu_77::UnicodeString", %"class.icu_77::UnicodeString", %"class.icu_77::UnicodeString", double, %"class.icu_77::number::impl::NullableValue.7", i32, i8, [3 x i8] }>
%"class.icu_77::number::impl::NullableValue" = type { i8, i32 }
%"class.icu_77::number::impl::NullableValue.3" = type { i8, [7 x i8], %"class.icu_77::CurrencyUnit" }
%"class.icu_77::CurrencyUnit" = type { %"class.icu_77::MeasureUnit.base", [4 x i16], [4 x i8] }
%"class.icu_77::MeasureUnit.base" = type <{ %"class.icu_77::UObject", ptr, i16, i8 }>
%"class.icu_77::number::impl::CurrencyPluralInfoWrapper" = type { %"class.icu_77::LocalPointer.1" }
%"class.icu_77::LocalPointer.1" = type { %"class.icu_77::LocalPointerBase.2" }
%"class.icu_77::LocalPointerBase.2" = type { ptr }
%"class.icu_77::number::impl::NullableValue.4" = type { i8, i32 }
%"class.icu_77::number::impl::NullableValue.5" = type { i8, i32 }
%"class.icu_77::number::impl::NullableValue.6" = type { i8, i32 }
%"class.icu_77::number::impl::NullableValue.7" = type { i8, i32 }
%"struct.icu_77::number::impl::DecimalFormatFields::FastFormatData" = type { i16, i16, i16, i8, i8 }

; Function Attrs: mustprogress uwtable
define void @_ZN6icu_7713DecimalFormat12touchNoErrorEv(ptr noundef nonnull align 8 dereferenceable(72) %0) #1 align 2 {
  %2 = alloca ptr, align 8
  %3 = alloca i32, align 4
  store ptr %0, ptr %2, align 8, !tbaa !23
  %4 = load ptr, ptr %2, align 8
  call void @llvm.lifetime.start.p0(i64 4, ptr %3) #15
  store i32 0, ptr %3, align 4, !tbaa !15
  call void @_ZN6icu_7713DecimalFormat5touchER10UErrorCode(ptr noundef nonnull align 8 dereferenceable(72) %4, ptr noundef nonnull align 4 dereferenceable(4) %3)
  call void @llvm.lifetime.end.p0(i64 4, ptr %3) #15
  ret void
}

; Function Attrs: mustprogress uwtable
define void @_ZN6icu_7713DecimalFormat24setMinimumFractionDigitsEi(ptr noundef nonnull align 8 dereferenceable(72) %0, i32 noundef %1) unnamed_addr #1 align 2 {
  %3 = alloca ptr, align 8
  %4 = alloca i32, align 4
  %5 = alloca i32, align 4
  store ptr %0, ptr %3, align 8, !tbaa !23
  store i32 %1, ptr %4, align 4, !tbaa !14
  %6 = load ptr, ptr %3, align 8
  %7 = getelementptr inbounds nuw %"class.icu_77::DecimalFormat", ptr %6, i32 0, i32 1
  %8 = load ptr, ptr %7, align 8, !tbaa !31
  %9 = icmp eq ptr %8, null
  br i1 %9, label %10, label %11

10:                                               ; preds = %2
  br label %44

11:                                               ; preds = %2
  %12 = load i32, ptr %4, align 4, !tbaa !14
  %13 = getelementptr inbounds nuw %"class.icu_77::DecimalFormat", ptr %6, i32 0, i32 1
  %14 = load ptr, ptr %13, align 8, !tbaa !31
  %15 = getelementptr inbounds nuw %"struct.icu_77::number::impl::DecimalFormatFields", ptr %14, i32 0, i32 1
  %16 = getelementptr inbounds nuw %"struct.icu_77::number::impl::DecimalFormatProperties", ptr %15, i32 0, i32 19
  %17 = load i32, ptr %16, align 8, !tbaa !305
  %18 = icmp eq i32 %12, %17
  br i1 %18, label %19, label %20

19:                                               ; preds = %11
  br label %44

20:                                               ; preds = %11
  call void @llvm.lifetime.start.p0(i64 4, ptr %5) #15
  %21 = getelementptr inbounds nuw %"class.icu_77::DecimalFormat", ptr %6, i32 0, i32 1
  %22 = load ptr, ptr %21, align 8, !tbaa !31
  %23 = getelementptr inbounds nuw %"struct.icu_77::number::impl::DecimalFormatFields", ptr %22, i32 0, i32 1
  %24 = getelementptr inbounds nuw %"struct.icu_77::number::impl::DecimalFormatProperties", ptr %23, i32 0, i32 15
  %25 = load i32, ptr %24, align 8, !tbaa !304
  store i32 %25, ptr %5, align 4, !tbaa !14
  %26 = load i32, ptr %5, align 4, !tbaa !14
  %27 = icmp sge i32 %26, 0
  br i1 %27, label %28, label %38

28:                                               ; preds = %20
  %29 = load i32, ptr %5, align 4, !tbaa !14
  %30 = load i32, ptr %4, align 4, !tbaa !14
  %31 = icmp slt i32 %29, %30
  br i1 %31, label %32, label %38

32:                                               ; preds = %28
  %33 = load i32, ptr %4, align 4, !tbaa !14
  %34 = getelementptr inbounds nuw %"class.icu_77::DecimalFormat", ptr %6, i32 0, i32 1
  %35 = load ptr, ptr %34, align 8, !tbaa !31
  %36 = getelementptr inbounds nuw %"struct.icu_77::number::impl::DecimalFormatFields", ptr %35, i32 0, i32 1
  %37 = getelementptr inbounds nuw %"struct.icu_77::number::impl::DecimalFormatProperties", ptr %36, i32 0, i32 15
  store i32 %33, ptr %37, align 8, !tbaa !304
  br label %38

38:                                               ; preds = %32, %28, %20
  %39 = load i32, ptr %4, align 4, !tbaa !14
  %40 = getelementptr inbounds nuw %"class.icu_77::DecimalFormat", ptr %6, i32 0, i32 1
  %41 = load ptr, ptr %40, align 8, !tbaa !31
  %42 = getelementptr inbounds nuw %"struct.icu_77::number::impl::DecimalFormatFields", ptr %41, i32 0, i32 1
  %43 = getelementptr inbounds nuw %"struct.icu_77::number::impl::DecimalFormatProperties", ptr %42, i32 0, i32 19
  store i32 %39, ptr %43, align 8, !tbaa !305
  call void @_ZN6icu_7713DecimalFormat12touchNoErrorEv(ptr noundef nonnull align 8 dereferenceable(72) %6)
  call void @llvm.lifetime.end.p0(i64 4, ptr %5) #15
  br label %44

44:                                               ; preds = %38, %19, %10
  ret void
}